target datalayout = "e-m:e-p270:32:32-p271:32:32-p272:64:64-i64:64-i128:128-f80:128-n8:16:32:64-S128"
target triple = "x86_64-pc-linux-gnu"

%struct.__va_list_tag = type { i32, i32, ptr, ptr }

; Function Attrs: nounwind uwtable
define ptr @zend_throw_exception_ex(ptr noundef %0, i64 noundef %1, ptr noundef %2, ...) #0 {
  %4 = alloca ptr, align 8
  %5 = alloca i64, align 8
  %6 = alloca ptr, align 8
  %7 = alloca [1 x %struct.__va_list_tag], align 16
  %8 = alloca ptr, align 8
  %9 = alloca ptr, align 8
  store ptr %0, ptr %4, align 8
  store i64 %1, ptr %5, align 8
  store ptr %2, ptr %6, align 8
  %10 = getelementptr inbounds [1 x %struct.__va_list_tag], ptr %7, i64 0, i64 0
  call void @llvm.va_start(ptr %10)
  %11 = load ptr, ptr %6, align 8
  %12 = getelementptr inbounds [1 x %struct.__va_list_tag], ptr %7, i64 0, i64 0
  %13 = call i64 @zend_vspprintf(ptr noundef %8, i64 noundef 0, ptr noundef %11, ptr noundef %12)
  %14 = getelementptr inbounds [1 x %struct.__va_list_tag], ptr %7, i64 0, i64 0
  call void @llvm.va_end(ptr %14)
  %15 = load ptr, ptr %4, align 8
  %16 = load ptr, ptr %8, align 8
  %17 = load i64, ptr %5, align 8
  %18 = call ptr @zend_throw_exception(ptr noundef %15, ptr noundef %16, i64 noundef %17)
  store ptr %18, ptr %9, align 8
  %19 = load ptr, ptr %8, align 8
  call void @_efree(ptr noundef %19)
  %20 = load ptr, ptr %9, align 8
  ret ptr %20
}