; Function Attrs: nounwind uwtable
define ptr @zend_throw_exception_ex(ptr noundef %0, i64 noundef %1, ptr noundef %2, ...) local_unnamed_addr #0 {
  %4 = alloca [1 x %struct.__va_list_tag], align 16
  %5 = alloca ptr, align 8
  call void @llvm.va_start(ptr nonnull %4)
  %6 = call i64 @zend_vspprintf(ptr noundef nonnull %5, i64 noundef 0, ptr noundef %2, ptr noundef nonnull %4) #15
  call void @llvm.va_end(ptr nonnull %4)
  %7 = load ptr, ptr %5, align 8
  %8 = call ptr @zend_throw_exception(ptr noundef %0, ptr noundef %7, i64 noundef %1)
  %9 = load ptr, ptr %5, align 8
  call void @_efree(ptr noundef %9) #15
  ret ptr %8
}